target datalayout = "e-m:e-p270:32:32-p271:32:32-p272:64:64-i64:64-i128:128-f80:128-n8:16:32:64-S128"
target triple = "x86_64-pc-linux-gnu"

; Function Attrs: nounwind uwtable
define ptr @stbiw__sbgrowf(ptr noundef %0, i32 noundef %1, i32 noundef %2) #0 {
  %4 = alloca ptr, align 8
  %5 = alloca i32, align 4
  %6 = alloca i32, align 4
  %7 = alloca i32, align 4
  %8 = alloca ptr, align 8
  store ptr %0, ptr %4, align 8, !tbaa !7
  store i32 %1, ptr %5, align 4, !tbaa !3
  store i32 %2, ptr %6, align 4, !tbaa !3
  call void @llvm.lifetime.start.p0(i64 4, ptr %7) #11
  %9 = load ptr, ptr %4, align 8, !tbaa !7
  %10 = load ptr, ptr %9, align 8, !tbaa !7
  %11 = icmp ne ptr %10, null
  br i1 %11, label %12, label %21

12:                                               ; preds = %3
  %13 = load ptr, ptr %4, align 8, !tbaa !7
  %14 = load ptr, ptr %13, align 8, !tbaa !7
  %15 = getelementptr inbounds i32, ptr %14, i64 -2
  %16 = getelementptr inbounds i32, ptr %15, i64 0
  %17 = load i32, ptr %16, align 4, !tbaa !3
  %18 = mul nsw i32 2, %17
  %19 = load i32, ptr %5, align 4, !tbaa !3
  %20 = add nsw i32 %18, %19
  br label %24

21:                                               ; preds = %3
  %22 = load i32, ptr %5, align 4, !tbaa !3
  %23 = add nsw i32 %22, 1
  br label %24

24:                                               ; preds = %21, %12
  %25 = phi i32 [ %20, %12 ], [ %23, %21 ]
  store i32 %25, ptr %7, align 4, !tbaa !3
  call void @llvm.lifetime.start.p0(i64 8, ptr %8) #11
  %26 = load ptr, ptr %4, align 8, !tbaa !7
  %27 = load ptr, ptr %26, align 8, !tbaa !7
  %28 = icmp ne ptr %27, null
  br i1 %28, label %29, label %33

29:                                               ; preds = %24
  %30 = load ptr, ptr %4, align 8, !tbaa !7
  %31 = load ptr, ptr %30, align 8, !tbaa !7
  %32 = getelementptr inbounds i32, ptr %31, i64 -2
  br label %34

33:                                               ; preds = %24
  br label %34

34:                                               ; preds = %33, %29
  %35 = phi ptr [ %32, %29 ], [ null, %33 ]
  %36 = load i32, ptr %6, align 4, !tbaa !3
  %37 = load i32, ptr %7, align 4, !tbaa !3
  %38 = mul nsw i32 %36, %37
  %39 = sext i32 %38 to i64
  %40 = add i64 %39, 8
  %41 = call ptr @realloc(ptr noundef %35, i64 noundef %40) #14
  store ptr %41, ptr %8, align 8, !tbaa !7
  %42 = load ptr, ptr %8, align 8, !tbaa !7
  %43 = icmp ne ptr %42, null
  br i1 %43, label %44, label %60

44:                                               ; preds = %34
  %45 = load ptr, ptr %4, align 8, !tbaa !7
  %46 = load ptr, ptr %45, align 8, !tbaa !7
  %47 = icmp ne ptr %46, null
  br i1 %47, label %51, label %48

48:                                               ; preds = %44
  %49 = load ptr, ptr %8, align 8, !tbaa !7
  %50 = getelementptr inbounds i32, ptr %49, i64 1
  store i32 0, ptr %50, align 4, !tbaa !3
  br label %51

51:                                               ; preds = %48, %44
  %52 = load ptr, ptr %8, align 8, !tbaa !7
  %53 = getelementptr inbounds i32, ptr %52, i64 2
  %54 = load ptr, ptr %4, align 8, !tbaa !7
  store ptr %53, ptr %54, align 8, !tbaa !7
  %55 = load i32, ptr %7, align 4, !tbaa !3
  %56 = load ptr, ptr %4, align 8, !tbaa !7
  %57 = load ptr, ptr %56, align 8, !tbaa !7
  %58 = getelementptr inbounds i32, ptr %57, i64 -2
  %59 = getelementptr inbounds i32, ptr %58, i64 0
  store i32 %55, ptr %59, align 4, !tbaa !3
  br label %60

60:                                               ; preds = %51, %34
  %61 = load ptr, ptr %4, align 8, !tbaa !7
  %62 = load ptr, ptr %61, align 8, !tbaa !7
  call void @llvm.lifetime.end.p0(i64 8, ptr %8) #11
  call void @llvm.lifetime.end.p0(i64 4, ptr %7) #11
  ret ptr %62
}