; Function Attrs: mustprogress nounwind willreturn uwtable
define ptr @stbiw__sbgrowf(ptr noundef captures(none) %0, i32 noundef %1, i32 noundef %2) local_unnamed_addr #13 {
  %4 = load ptr, ptr %0, align 8, !tbaa !34
  %.not = icmp eq ptr %4, null
  br i1 %.not, label %10, label %5

5:                                                ; preds = %3
  %6 = getelementptr inbounds i8, ptr %4, i64 -8
  %7 = load i32, ptr %6, align 4, !tbaa !3
  %8 = shl nsw i32 %7, 1
  %9 = add nsw i32 %8, %1
  br label %12

10:                                               ; preds = %3
  %11 = add nsw i32 %1, 1
  br label %12

12:                                               ; preds = %10, %5
  %13 = phi i32 [ %9, %5 ], [ %11, %10 ]
  %14 = getelementptr inbounds i8, ptr %4, i64 -8
  %spec.select = select i1 %.not, ptr null, ptr %14
  %15 = mul nsw i32 %13, %2
  %16 = sext i32 %15 to i64
  %17 = add nsw i64 %16, 8
  %18 = tail call ptr @realloc(ptr noundef %spec.select, i64 noundef %17) #28
  %.not18 = icmp eq ptr %18, null
  %.pre = load ptr, ptr %0, align 8, !tbaa !34
  br i1 %.not18, label %24, label %19

19:                                               ; preds = %12
  %.not19 = icmp eq ptr %.pre, null
  br i1 %.not19, label %20, label %22

20:                                               ; preds = %19
  %21 = getelementptr inbounds nuw i8, ptr %18, i64 4
  store i32 0, ptr %21, align 4, !tbaa !3
  br label %22

22:                                               ; preds = %20, %19
  %23 = getelementptr inbounds nuw i8, ptr %18, i64 8
  store ptr %23, ptr %0, align 8, !tbaa !34
  store i32 %13, ptr %18, align 4, !tbaa !3
  br label %24

24:                                               ; preds = %22, %12
  %25 = phi ptr [ %23, %22 ], [ %.pre, %12 ]
  ret ptr %25
}